target datalayout = "e-m:e-p270:32:32-p271:32:32-p272:64:64-i64:64-i128:128-f80:128-n8:16:32:64-S128"
target triple = "x86_64-pc-linux-gnu"

%struct.asn1_string_st = type { i32, i32, ptr, i64 }

; Function Attrs: nounwind uwtable
define hidden i32 @i2c_ASN1_BIT_STRING(ptr noundef %0, ptr noundef %1) #0 {
  %3 = alloca i32, align 4
  %4 = alloca ptr, align 8
  %5 = alloca ptr, align 8
  %6 = alloca i32, align 4
  %7 = alloca i32, align 4
  %8 = alloca i32, align 4
  %9 = alloca i32, align 4
  %10 = alloca ptr, align 8
  %11 = alloca ptr, align 8
  %12 = alloca i32, align 4
  store ptr %0, ptr %4, align 8, !tbaa !6
  store ptr %1, ptr %5, align 8, !tbaa !15
  call void @llvm.lifetime.start.p0(i64 4, ptr %6) #7
  call void @llvm.lifetime.start.p0(i64 4, ptr %7) #7
  call void @llvm.lifetime.start.p0(i64 4, ptr %8) #7
  call void @llvm.lifetime.start.p0(i64 4, ptr %9) #7
  call void @llvm.lifetime.start.p0(i64 8, ptr %10) #7
  call void @llvm.lifetime.start.p0(i64 8, ptr %11) #7
  %13 = load ptr, ptr %4, align 8, !tbaa !6
  %14 = icmp eq ptr %13, null
  br i1 %14, label %15, label %16

15:                                               ; preds = %2
  store i32 0, ptr %3, align 4
  store i32 1, ptr %12, align 4
  br label %153

16:                                               ; preds = %2
  %17 = load ptr, ptr %4, align 8, !tbaa !6
  %18 = getelementptr inbounds nuw %struct.asn1_string_st, ptr %17, i32 0, i32 0
  %19 = load i32, ptr %18, align 8, !tbaa !17
  store i32 %19, ptr %9, align 4, !tbaa !13
  %20 = load i32, ptr %9, align 4, !tbaa !13
  %21 = icmp sgt i32 %20, 0
  br i1 %21, label %22, label %112

22:                                               ; preds = %16
  %23 = load ptr, ptr %4, align 8, !tbaa !6
  %24 = getelementptr inbounds nuw %struct.asn1_string_st, ptr %23, i32 0, i32 3
  %25 = load i64, ptr %24, align 8, !tbaa !20
  %26 = and i64 %25, 8
  %27 = icmp ne i64 %26, 0
  br i1 %27, label %28, label %34

28:                                               ; preds = %22
  %29 = load ptr, ptr %4, align 8, !tbaa !6
  %30 = getelementptr inbounds nuw %struct.asn1_string_st, ptr %29, i32 0, i32 3
  %31 = load i64, ptr %30, align 8, !tbaa !20
  %32 = trunc i64 %31 to i32
  %33 = and i32 %32, 7
  store i32 %33, ptr %8, align 4, !tbaa !13
  br label %111

34:                                               ; preds = %22
  br label %35

35:                                               ; preds = %50, %34
  %36 = load i32, ptr %9, align 4, !tbaa !13
  %37 = icmp sgt i32 %36, 0
  br i1 %37, label %38, label %53

38:                                               ; preds = %35
  %39 = load ptr, ptr %4, align 8, !tbaa !6
  %40 = getelementptr inbounds nuw %struct.asn1_string_st, ptr %39, i32 0, i32 2
  %41 = load ptr, ptr %40, align 8, !tbaa !21
  %42 = load i32, ptr %9, align 4, !tbaa !13
  %43 = sub nsw i32 %42, 1
  %44 = sext i32 %43 to i64
  %45 = getelementptr inbounds i8, ptr %41, i64 %44
  %46 = load i8, ptr %45, align 1, !tbaa !22
  %47 = icmp ne i8 %46, 0
  br i1 %47, label %48, label %49

48:                                               ; preds = %38
  br label %53

49:                                               ; preds = %38
  br label %50

50:                                               ; preds = %49
  %51 = load i32, ptr %9, align 4, !tbaa !13
  %52 = add nsw i32 %51, -1
  store i32 %52, ptr %9, align 4, !tbaa !13
  br label %35, !llvm.loop !23

53:                                               ; preds = %48, %35
  %54 = load ptr, ptr %4, align 8, !tbaa !6
  %55 = getelementptr inbounds nuw %struct.asn1_string_st, ptr %54, i32 0, i32 2
  %56 = load ptr, ptr %55, align 8, !tbaa !21
  %57 = load i32, ptr %9, align 4, !tbaa !13
  %58 = sub nsw i32 %57, 1
  %59 = sext i32 %58 to i64
  %60 = getelementptr inbounds i8, ptr %56, i64 %59
  %61 = load i8, ptr %60, align 1, !tbaa !22
  %62 = zext i8 %61 to i32
  store i32 %62, ptr %7, align 4, !tbaa !13
  %63 = load i32, ptr %7, align 4, !tbaa !13
  %64 = and i32 %63, 1
  %65 = icmp ne i32 %64, 0
  br i1 %65, label %66, label %67

66:                                               ; preds = %53
  store i32 0, ptr %8, align 4, !tbaa !13
  br label %110

67:                                               ; preds = %53
  %68 = load i32, ptr %7, align 4, !tbaa !13
  %69 = and i32 %68, 2
  %70 = icmp ne i32 %69, 0
  br i1 %70, label %71, label %72

71:                                               ; preds = %67
  store i32 1, ptr %8, align 4, !tbaa !13
  br label %109

72:                                               ; preds = %67
  %73 = load i32, ptr %7, align 4, !tbaa !13
  %74 = and i32 %73, 4
  %75 = icmp ne i32 %74, 0
  br i1 %75, label %76, label %77

76:                                               ; preds = %72
  store i32 2, ptr %8, align 4, !tbaa !13
  br label %108

77:                                               ; preds = %72
  %78 = load i32, ptr %7, align 4, !tbaa !13
  %79 = and i32 %78, 8
  %80 = icmp ne i32 %79, 0
  br i1 %80, label %81, label %82

81:                                               ; preds = %77
  store i32 3, ptr %8, align 4, !tbaa !13
  br label %107

82:                                               ; preds = %77
  %83 = load i32, ptr %7, align 4, !tbaa !13
  %84 = and i32 %83, 16
  %85 = icmp ne i32 %84, 0
  br i1 %85, label %86, label %87

86:                                               ; preds = %82
  store i32 4, ptr %8, align 4, !tbaa !13
  br label %106

87:                                               ; preds = %82
  %88 = load i32, ptr %7, align 4, !tbaa !13
  %89 = and i32 %88, 32
  %90 = icmp ne i32 %89, 0
  br i1 %90, label %91, label %92

91:                                               ; preds = %87
  store i32 5, ptr %8, align 4, !tbaa !13
  br label %105

92:                                               ; preds = %87
  %93 = load i32, ptr %7, align 4, !tbaa !13
  %94 = and i32 %93, 64
  %95 = icmp ne i32 %94, 0
  br i1 %95, label %96, label %97

96:                                               ; preds = %92
  store i32 6, ptr %8, align 4, !tbaa !13
  br label %104

97:                                               ; preds = %92
  %98 = load i32, ptr %7, align 4, !tbaa !13
  %99 = and i32 %98, 128
  %100 = icmp ne i32 %99, 0
  br i1 %100, label %101, label %102

101:                                              ; preds = %97
  store i32 7, ptr %8, align 4, !tbaa !13
  br label %103

102:                                              ; preds = %97
  store i32 0, ptr %8, align 4, !tbaa !13
  br label %103

103:                                              ; preds = %102, %101
  br label %104

104:                                              ; preds = %103, %96
  br label %105

105:                                              ; preds = %104, %91
  br label %106

106:                                              ; preds = %105, %86
  br label %107

107:                                              ; preds = %106, %81
  br label %108

108:                                              ; preds = %107, %76
  br label %109

109:                                              ; preds = %108, %71
  br label %110

110:                                              ; preds = %109, %66
  br label %111

111:                                              ; preds = %110, %28
  br label %113

112:                                              ; preds = %16
  store i32 0, ptr %8, align 4, !tbaa !13
  br label %113

113:                                              ; preds = %112, %111
  %114 = load i32, ptr %9, align 4, !tbaa !13
  %115 = add nsw i32 1, %114
  store i32 %115, ptr %6, align 4, !tbaa !13
  %116 = load ptr, ptr %5, align 8, !tbaa !15
  %117 = icmp eq ptr %116, null
  br i1 %117, label %118, label %120

118:                                              ; preds = %113
  %119 = load i32, ptr %6, align 4, !tbaa !13
  store i32 %119, ptr %3, align 4
  store i32 1, ptr %12, align 4
  br label %153

120:                                              ; preds = %113
  %121 = load ptr, ptr %5, align 8, !tbaa !15
  %122 = load ptr, ptr %121, align 8, !tbaa !11
  store ptr %122, ptr %10, align 8, !tbaa !11
  %123 = load i32, ptr %8, align 4, !tbaa !13
  %124 = trunc i32 %123 to i8
  %125 = load ptr, ptr %10, align 8, !tbaa !11
  %126 = getelementptr inbounds nuw i8, ptr %125, i32 1
  store ptr %126, ptr %10, align 8, !tbaa !11
  store i8 %124, ptr %125, align 1, !tbaa !22
  %127 = load ptr, ptr %4, align 8, !tbaa !6
  %128 = getelementptr inbounds nuw %struct.asn1_string_st, ptr %127, i32 0, i32 2
  %129 = load ptr, ptr %128, align 8, !tbaa !21
  store ptr %129, ptr %11, align 8, !tbaa !11
  %130 = load ptr, ptr %10, align 8, !tbaa !11
  %131 = load ptr, ptr %11, align 8, !tbaa !11
  %132 = load i32, ptr %9, align 4, !tbaa !13
  %133 = sext i32 %132 to i64
  call void @llvm.memcpy.p0.p0.i64(ptr align 1 %130, ptr align 1 %131, i64 %133, i1 false)
  %134 = load i32, ptr %9, align 4, !tbaa !13
  %135 = load ptr, ptr %10, align 8, !tbaa !11
  %136 = sext i32 %134 to i64
  %137 = getelementptr inbounds i8, ptr %135, i64 %136
  store ptr %137, ptr %10, align 8, !tbaa !11
  %138 = load i32, ptr %9, align 4, !tbaa !13
  %139 = icmp sgt i32 %138, 0
  br i1 %139, label %140, label %149

140:                                              ; preds = %120
  %141 = load i32, ptr %8, align 4, !tbaa !13
  %142 = shl i32 255, %141
  %143 = load ptr, ptr %10, align 8, !tbaa !11
  %144 = getelementptr inbounds i8, ptr %143, i64 -1
  %145 = load i8, ptr %144, align 1, !tbaa !22
  %146 = zext i8 %145 to i32
  %147 = and i32 %146, %142
  %148 = trunc i32 %147 to i8
  store i8 %148, ptr %144, align 1, !tbaa !22
  br label %149

149:                                              ; preds = %140, %120
  %150 = load ptr, ptr %10, align 8, !tbaa !11
  %151 = load ptr, ptr %5, align 8, !tbaa !15
  store ptr %150, ptr %151, align 8, !tbaa !11
  %152 = load i32, ptr %6, align 4, !tbaa !13
  store i32 %152, ptr %3, align 4
  store i32 1, ptr %12, align 4
  br label %153

153:                                              ; preds = %149, %118, %15
  call void @llvm.lifetime.end.p0(i64 8, ptr %11) #7
  call void @llvm.lifetime.end.p0(i64 8, ptr %10) #7
  call void @llvm.lifetime.end.p0(i64 4, ptr %9) #7
  call void @llvm.lifetime.end.p0(i64 4, ptr %8) #7
  call void @llvm.lifetime.end.p0(i64 4, ptr %7) #7
  call void @llvm.lifetime.end.p0(i64 4, ptr %6) #7
  %154 = load i32, ptr %3, align 4
  ret i32 %154
}