; Function Attrs: nofree norecurse nosync nounwind memory(readwrite, inaccessiblemem: none) uwtable
define hidden range(i32 -2147483647, -2147483648) i32 @i2c_ASN1_BIT_STRING(ptr noundef readonly captures(address_is_null) %0, ptr noundef captures(address_is_null) %1) local_unnamed_addr #2 {
  %3 = icmp eq ptr %0, null
  br i1 %3, label %60, label %4

4:                                                ; preds = %2
  %5 = load i32, ptr %0, align 8, !tbaa !6
  %6 = icmp sgt i32 %5, 0
  br i1 %6, label %7, label %41

7:                                                ; preds = %4
  %8 = getelementptr inbounds nuw i8, ptr %0, i64 16
  %9 = load i64, ptr %8, align 8, !tbaa !14
  %10 = and i64 %9, 8
  %.not = icmp eq i64 %10, 0
  br i1 %.not, label %.lr.ph, label %13

.lr.ph:                                           ; preds = %7
  %11 = getelementptr inbounds nuw i8, ptr %0, i64 8
  %12 = load ptr, ptr %11, align 8, !tbaa !15
  %invariant.gep = getelementptr i8, ptr %12, i64 -1
  br label %16

13:                                               ; preds = %7
  %14 = trunc i64 %9 to i32
  %15 = and i32 %14, 7
  br label %41

16:                                               ; preds = %.lr.ph, %19
  %.03752 = phi i32 [ %5, %.lr.ph ], [ %20, %19 ]
  %17 = zext nneg i32 %.03752 to i64
  %gep = getelementptr i8, ptr %invariant.gep, i64 %17
  %18 = load i8, ptr %gep, align 1, !tbaa !16
  %.not43 = icmp eq i8 %18, 0
  br i1 %.not43, label %19, label %._crit_edge

19:                                               ; preds = %16
  %20 = add nsw i32 %.03752, -1
  %21 = icmp sgt i32 %.03752, 1
  br i1 %21, label %16, label %._crit_edge, !llvm.loop !17

._crit_edge:                                      ; preds = %19, %16
  %.037.lcssa.ph = phi i32 [ 0, %19 ], [ %.03752, %16 ]
  %22 = zext nneg i32 %.037.lcssa.ph to i64
  %23 = getelementptr i8, ptr %12, i64 %22
  %24 = getelementptr i8, ptr %23, i64 -1
  %25 = load i8, ptr %24, align 1, !tbaa !16
  %26 = zext i8 %25 to i32
  %27 = and i32 %26, 1
  %.not44 = icmp eq i32 %27, 0
  br i1 %.not44, label %28, label %41

28:                                               ; preds = %._crit_edge
  %29 = and i32 %26, 2
  %.not45 = icmp eq i32 %29, 0
  br i1 %.not45, label %30, label %41

30:                                               ; preds = %28
  %31 = and i32 %26, 4
  %.not46 = icmp eq i32 %31, 0
  br i1 %.not46, label %32, label %41

32:                                               ; preds = %30
  %33 = and i32 %26, 8
  %.not47 = icmp eq i32 %33, 0
  br i1 %.not47, label %34, label %41

34:                                               ; preds = %32
  %35 = and i32 %26, 16
  %.not48 = icmp eq i32 %35, 0
  br i1 %.not48, label %36, label %41

36:                                               ; preds = %34
  %37 = and i32 %26, 32
  %.not49 = icmp eq i32 %37, 0
  br i1 %.not49, label %38, label %41

38:                                               ; preds = %36
  %39 = and i32 %26, 64
  %.not50 = icmp eq i32 %39, 0
  br i1 %.not50, label %40, label %41

40:                                               ; preds = %38
  %.not51 = icmp eq i8 %25, 0
  %. = select i1 %.not51, i32 0, i32 7
  br label %41

41:                                               ; preds = %4, %40, %38, %36, %34, %32, %30, %28, %._crit_edge, %13
  %.038 = phi i32 [ %15, %13 ], [ 0, %._crit_edge ], [ 1, %28 ], [ 2, %30 ], [ 3, %32 ], [ 4, %34 ], [ 5, %36 ], [ 6, %38 ], [ %., %40 ], [ 0, %4 ]
  %.1 = phi i32 [ %5, %13 ], [ %.037.lcssa.ph, %._crit_edge ], [ %.037.lcssa.ph, %28 ], [ %.037.lcssa.ph, %30 ], [ %.037.lcssa.ph, %32 ], [ %.037.lcssa.ph, %34 ], [ %.037.lcssa.ph, %36 ], [ %.037.lcssa.ph, %38 ], [ %.037.lcssa.ph, %40 ], [ %5, %4 ]
  %42 = add nsw i32 %.1, 1
  %43 = icmp eq ptr %1, null
  br i1 %43, label %60, label %44

44:                                               ; preds = %41
  %45 = load ptr, ptr %1, align 8, !tbaa !19
  %46 = trunc nuw nsw i32 %.038 to i8
  %47 = getelementptr inbounds nuw i8, ptr %45, i64 1
  store i8 %46, ptr %45, align 1, !tbaa !16
  %48 = getelementptr inbounds nuw i8, ptr %0, i64 8
  %49 = load ptr, ptr %48, align 8, !tbaa !15
  %50 = sext i32 %.1 to i64
  tail call void @llvm.memcpy.p0.p0.i64(ptr nonnull align 1 %47, ptr align 1 %49, i64 %50, i1 false)
  %51 = getelementptr inbounds i8, ptr %47, i64 %50
  %52 = icmp sgt i32 %.1, 0
  br i1 %52, label %53, label %59

53:                                               ; preds = %44
  %54 = shl nuw nsw i32 255, %.038
  %55 = getelementptr inbounds i8, ptr %51, i64 -1
  %56 = load i8, ptr %55, align 1, !tbaa !16
  %57 = trunc i32 %54 to i8
  %58 = and i8 %56, %57
  store i8 %58, ptr %55, align 1, !tbaa !16
  br label %59

59:                                               ; preds = %53, %44
  store ptr %51, ptr %1, align 8, !tbaa !19
  br label %60

60:                                               ; preds = %41, %2, %59
  %.0 = phi i32 [ %42, %59 ], [ 0, %2 ], [ %42, %41 ]
  ret i32 %.0
}